target datalayout = "e-m:e-p270:32:32-p271:32:32-p272:64:64-i64:64-i128:128-f80:128-n8:16:32:64-S128"
target triple = "x86_64-pc-linux-gnu"

%struct.__storeu_ps = type { <4 x float> }
%struct.__loadu_si128 = type { <2 x i64> }

; Function Attrs: alwaysinline nounwind uwtable
define internal void @_mm_storeu_ps(ptr noundef %0, <4 x float> noundef %1) #13 {
  %3 = alloca ptr, align 8
  %4 = alloca <4 x float>, align 16
  store ptr %0, ptr %3, align 8
  store <4 x float> %1, ptr %4, align 16
  %5 = load <4 x float>, ptr %4, align 16
  %6 = load ptr, ptr %3, align 8
  %7 = getelementptr inbounds nuw %struct.__storeu_ps, ptr %6, i32 0, i32 0
  store <4 x float> %5, ptr %7, align 1
  ret void
}

; Function Attrs: alwaysinline nounwind uwtable
define internal <4 x float> @_mm_cvtepi32_ps(<2 x i64> noundef %0) #13 {
  %2 = alloca <2 x i64>, align 16
  store <2 x i64> %0, ptr %2, align 16
  %3 = load <2 x i64>, ptr %2, align 16
  %4 = bitcast <2 x i64> %3 to <4 x i32>
  %5 = sitofp <4 x i32> %4 to <4 x float>
  ret <4 x float> %5
}

; Function Attrs: alwaysinline nounwind uwtable
define internal <2 x i64> @_mm_unpackhi_epi16(<2 x i64> noundef %0, <2 x i64> noundef %1) #13 {
  %3 = alloca <2 x i64>, align 16
  %4 = alloca <2 x i64>, align 16
  store <2 x i64> %0, ptr %3, align 16
  store <2 x i64> %1, ptr %4, align 16
  %5 = load <2 x i64>, ptr %3, align 16
  %6 = bitcast <2 x i64> %5 to <8 x i16>
  %7 = load <2 x i64>, ptr %4, align 16
  %8 = bitcast <2 x i64> %7 to <8 x i16>
  %9 = shufflevector <8 x i16> %6, <8 x i16> %8, <8 x i32> <i32 4, i32 12, i32 5, i32 13, i32 6, i32 14, i32 7, i32 15>
  %10 = bitcast <8 x i16> %9 to <2 x i64>
  ret <2 x i64> %10
}

; Function Attrs: alwaysinline nounwind uwtable
define internal <2 x i64> @_mm_unpacklo_epi16(<2 x i64> noundef %0, <2 x i64> noundef %1) #13 {
  %3 = alloca <2 x i64>, align 16
  %4 = alloca <2 x i64>, align 16
  store <2 x i64> %0, ptr %3, align 16
  store <2 x i64> %1, ptr %4, align 16
  %5 = load <2 x i64>, ptr %3, align 16
  %6 = bitcast <2 x i64> %5 to <8 x i16>
  %7 = load <2 x i64>, ptr %4, align 16
  %8 = bitcast <2 x i64> %7 to <8 x i16>
  %9 = shufflevector <8 x i16> %6, <8 x i16> %8, <8 x i32> <i32 0, i32 8, i32 1, i32 9, i32 2, i32 10, i32 3, i32 11>
  %10 = bitcast <8 x i16> %9 to <2 x i64>
  ret <2 x i64> %10
}

; Function Attrs: alwaysinline nounwind uwtable
define internal <2 x i64> @_mm_unpackhi_epi8(<2 x i64> noundef %0, <2 x i64> noundef %1) #13 {
  %3 = alloca <2 x i64>, align 16
  %4 = alloca <2 x i64>, align 16
  store <2 x i64> %0, ptr %3, align 16
  store <2 x i64> %1, ptr %4, align 16
  %5 = load <2 x i64>, ptr %3, align 16
  %6 = bitcast <2 x i64> %5 to <16 x i8>
  %7 = load <2 x i64>, ptr %4, align 16
  %8 = bitcast <2 x i64> %7 to <16 x i8>
  %9 = shufflevector <16 x i8> %6, <16 x i8> %8, <16 x i32> <i32 8, i32 24, i32 9, i32 25, i32 10, i32 26, i32 11, i32 27, i32 12, i32 28, i32 13, i32 29, i32 14, i32 30, i32 15, i32 31>
  %10 = bitcast <16 x i8> %9 to <2 x i64>
  ret <2 x i64> %10
}

; Function Attrs: alwaysinline nounwind uwtable
define internal <2 x i64> @_mm_unpacklo_epi8(<2 x i64> noundef %0, <2 x i64> noundef %1) #13 {
  %3 = alloca <2 x i64>, align 16
  %4 = alloca <2 x i64>, align 16
  store <2 x i64> %0, ptr %3, align 16
  store <2 x i64> %1, ptr %4, align 16
  %5 = load <2 x i64>, ptr %3, align 16
  %6 = bitcast <2 x i64> %5 to <16 x i8>
  %7 = load <2 x i64>, ptr %4, align 16
  %8 = bitcast <2 x i64> %7 to <16 x i8>
  %9 = shufflevector <16 x i8> %6, <16 x i8> %8, <16 x i32> <i32 0, i32 16, i32 1, i32 17, i32 2, i32 18, i32 3, i32 19, i32 4, i32 20, i32 5, i32 21, i32 6, i32 22, i32 7, i32 23>
  %10 = bitcast <16 x i8> %9 to <2 x i64>
  ret <2 x i64> %10
}

; Function Attrs: alwaysinline nounwind uwtable
define internal <2 x i64> @_mm_setzero_si128() #13 {
  %1 = alloca <2 x i64>, align 16
  store <2 x i64> zeroinitializer, ptr %1, align 16
  %2 = load <2 x i64>, ptr %1, align 16
  ret <2 x i64> %2
}

; Function Attrs: alwaysinline nounwind uwtable
define internal <2 x i64> @_mm_loadu_si128(ptr noundef %0) #13 {
  %2 = alloca ptr, align 8
  store ptr %0, ptr %2, align 8
  %3 = load ptr, ptr %2, align 8
  %4 = getelementptr inbounds nuw %struct.__loadu_si128, ptr %3, i32 0, i32 0
  %5 = load <2 x i64>, ptr %4, align 1
  ret <2 x i64> %5
}

; Function Attrs: nounwind uwtable
define internal void @stbir__decode_uint8_linear(ptr noundef %0, i32 noundef %1, ptr noundef %2) #12 {
  %4 = alloca ptr, align 8
  %5 = alloca i32, align 4
  %6 = alloca ptr, align 8
  %7 = alloca ptr, align 8
  %8 = alloca ptr, align 8
  %9 = alloca ptr, align 8
  %10 = alloca ptr, align 8
  %11 = alloca <2 x i64>, align 16
  %12 = alloca <2 x i64>, align 16
  %13 = alloca <2 x i64>, align 16
  %14 = alloca <2 x i64>, align 16
  %15 = alloca <2 x i64>, align 16
  %16 = alloca <4 x float>, align 16
  %17 = alloca <4 x float>, align 16
  %18 = alloca <4 x float>, align 16
  %19 = alloca <4 x float>, align 16
  %20 = alloca <2 x i64>, align 16
  %21 = alloca i32, align 4
  store ptr %0, ptr %4, align 8
  store i32 %1, ptr %5, align 4
  store ptr %2, ptr %6, align 8
  call void @llvm.lifetime.start.p0(i64 8, ptr %7) #19
  %22 = load ptr, ptr %4, align 8
  store ptr %22, ptr %7, align 8
  call void @llvm.lifetime.start.p0(i64 8, ptr %8) #19
  %23 = load ptr, ptr %7, align 8
  %24 = load i32, ptr %5, align 4
  %25 = sext i32 %24 to i64
  %26 = getelementptr inbounds float, ptr %23, i64 %25
  store ptr %26, ptr %8, align 8
  call void @llvm.lifetime.start.p0(i64 8, ptr %9) #19
  %27 = load ptr, ptr %6, align 8
  store ptr %27, ptr %9, align 8
  call void @llvm.lifetime.start.p0(i64 8, ptr %10) #19
  %28 = load ptr, ptr %9, align 8
  %29 = load i32, ptr %5, align 4
  %30 = sext i32 %29 to i64
  %31 = getelementptr inbounds i8, ptr %28, i64 %30
  %32 = getelementptr inbounds i8, ptr %31, i64 -16
  store ptr %32, ptr %10, align 8
  %33 = load i32, ptr %5, align 4
  %34 = icmp sge i32 %33, 16
  br i1 %34, label %35, label %102

35:                                               ; preds = %3
  %36 = load ptr, ptr %8, align 8
  %37 = getelementptr inbounds float, ptr %36, i64 -16
  store ptr %37, ptr %8, align 8
  br label %38

38:                                               ; preds = %100, %98, %35
  call void @llvm.lifetime.start.p0(i64 16, ptr %11) #19
  call void @llvm.lifetime.start.p0(i64 16, ptr %12) #19
  call void @llvm.lifetime.start.p0(i64 16, ptr %13) #19
  call void @llvm.lifetime.start.p0(i64 16, ptr %14) #19
  call void @llvm.lifetime.start.p0(i64 16, ptr %15) #19
  call void @llvm.lifetime.start.p0(i64 16, ptr %16) #19
  call void @llvm.lifetime.start.p0(i64 16, ptr %17) #19
  call void @llvm.lifetime.start.p0(i64 16, ptr %18) #19
  call void @llvm.lifetime.start.p0(i64 16, ptr %19) #19
  %39 = load ptr, ptr %7, align 8
  call void asm sideeffect "", "r,~{dirflag},~{fpsr},~{flags}"(ptr %39) #19, !srcloc !59
  %40 = load ptr, ptr %9, align 8
  %41 = call <2 x i64> @_mm_loadu_si128(ptr noundef %40)
  store <2 x i64> %41, ptr %11, align 16
  call void @llvm.lifetime.start.p0(i64 16, ptr %20) #19
  %42 = call <2 x i64> @_mm_setzero_si128()
  store <2 x i64> %42, ptr %20, align 16
  %43 = load <2 x i64>, ptr %11, align 16
  %44 = load <2 x i64>, ptr %20, align 16
  %45 = call <2 x i64> @_mm_unpacklo_epi8(<2 x i64> noundef %43, <2 x i64> noundef %44)
  store <2 x i64> %45, ptr %14, align 16
  %46 = load <2 x i64>, ptr %11, align 16
  %47 = load <2 x i64>, ptr %20, align 16
  %48 = call <2 x i64> @_mm_unpackhi_epi8(<2 x i64> noundef %46, <2 x i64> noundef %47)
  store <2 x i64> %48, ptr %15, align 16
  %49 = load <2 x i64>, ptr %14, align 16
  %50 = load <2 x i64>, ptr %20, align 16
  %51 = call <2 x i64> @_mm_unpacklo_epi16(<2 x i64> noundef %49, <2 x i64> noundef %50)
  store <2 x i64> %51, ptr %12, align 16
  %52 = load <2 x i64>, ptr %14, align 16
  %53 = load <2 x i64>, ptr %20, align 16
  %54 = call <2 x i64> @_mm_unpackhi_epi16(<2 x i64> noundef %52, <2 x i64> noundef %53)
  store <2 x i64> %54, ptr %13, align 16
  %55 = load <2 x i64>, ptr %15, align 16
  %56 = load <2 x i64>, ptr %20, align 16
  %57 = call <2 x i64> @_mm_unpacklo_epi16(<2 x i64> noundef %55, <2 x i64> noundef %56)
  store <2 x i64> %57, ptr %14, align 16
  %58 = load <2 x i64>, ptr %15, align 16
  %59 = load <2 x i64>, ptr %20, align 16
  %60 = call <2 x i64> @_mm_unpackhi_epi16(<2 x i64> noundef %58, <2 x i64> noundef %59)
  store <2 x i64> %60, ptr %15, align 16
  call void @llvm.lifetime.end.p0(i64 16, ptr %20) #19
  %61 = load <2 x i64>, ptr %12, align 16
  %62 = call <4 x float> @_mm_cvtepi32_ps(<2 x i64> noundef %61)
  store <4 x float> %62, ptr %16, align 16
  %63 = load <2 x i64>, ptr %13, align 16
  %64 = call <4 x float> @_mm_cvtepi32_ps(<2 x i64> noundef %63)
  store <4 x float> %64, ptr %17, align 16
  %65 = load <2 x i64>, ptr %14, align 16
  %66 = call <4 x float> @_mm_cvtepi32_ps(<2 x i64> noundef %65)
  store <4 x float> %66, ptr %18, align 16
  %67 = load <2 x i64>, ptr %15, align 16
  %68 = call <4 x float> @_mm_cvtepi32_ps(<2 x i64> noundef %67)
  store <4 x float> %68, ptr %19, align 16
  %69 = load ptr, ptr %7, align 8
  %70 = getelementptr inbounds float, ptr %69, i64 0
  %71 = load <4 x float>, ptr %16, align 16
  call void @_mm_storeu_ps(ptr noundef %70, <4 x float> noundef %71)
  %72 = load ptr, ptr %7, align 8
  %73 = getelementptr inbounds float, ptr %72, i64 4
  %74 = load <4 x float>, ptr %17, align 16
  call void @_mm_storeu_ps(ptr noundef %73, <4 x float> noundef %74)
  %75 = load ptr, ptr %7, align 8
  %76 = getelementptr inbounds float, ptr %75, i64 8
  %77 = load <4 x float>, ptr %18, align 16
  call void @_mm_storeu_ps(ptr noundef %76, <4 x float> noundef %77)
  %78 = load ptr, ptr %7, align 8
  %79 = getelementptr inbounds float, ptr %78, i64 12
  %80 = load <4 x float>, ptr %19, align 16
  call void @_mm_storeu_ps(ptr noundef %79, <4 x float> noundef %80)
  %81 = load ptr, ptr %7, align 8
  %82 = getelementptr inbounds float, ptr %81, i64 16
  store ptr %82, ptr %7, align 8
  %83 = load ptr, ptr %9, align 8
  %84 = getelementptr inbounds i8, ptr %83, i64 16
  store ptr %84, ptr %9, align 8
  %85 = load ptr, ptr %7, align 8
  %86 = load ptr, ptr %8, align 8
  %87 = icmp ule ptr %85, %86
  br i1 %87, label %88, label %89

88:                                               ; preds = %38
  store i32 3, ptr %21, align 4
  br label %98, !llvm.loop !60

89:                                               ; preds = %38
  %90 = load ptr, ptr %7, align 8
  %91 = load ptr, ptr %8, align 8
  %92 = getelementptr inbounds float, ptr %91, i64 16
  %93 = icmp eq ptr %90, %92
  br i1 %93, label %94, label %95

94:                                               ; preds = %89
  store i32 2, ptr %21, align 4
  br label %98

95:                                               ; preds = %89
  %96 = load ptr, ptr %8, align 8
  store ptr %96, ptr %7, align 8
  %97 = load ptr, ptr %10, align 8
  store ptr %97, ptr %9, align 8
  store i32 0, ptr %21, align 4
  br label %98

98:                                               ; preds = %95, %94, %88
  call void @llvm.lifetime.end.p0(i64 16, ptr %19) #19
  call void @llvm.lifetime.end.p0(i64 16, ptr %18) #19
  call void @llvm.lifetime.end.p0(i64 16, ptr %17) #19
  call void @llvm.lifetime.end.p0(i64 16, ptr %16) #19
  call void @llvm.lifetime.end.p0(i64 16, ptr %15) #19
  call void @llvm.lifetime.end.p0(i64 16, ptr %14) #19
  call void @llvm.lifetime.end.p0(i64 16, ptr %13) #19
  call void @llvm.lifetime.end.p0(i64 16, ptr %12) #19
  call void @llvm.lifetime.end.p0(i64 16, ptr %11) #19
  %99 = load i32, ptr %21, align 4
  switch i32 %99, label %162 [
    i32 0, label %100
    i32 3, label %38
    i32 2, label %101
  ]

100:                                              ; preds = %98
  br label %38, !llvm.loop !60

101:                                              ; preds = %98
  store i32 1, ptr %21, align 4
  br label %159

102:                                              ; preds = %3
  %103 = load ptr, ptr %7, align 8
  %104 = getelementptr inbounds float, ptr %103, i64 4
  store ptr %104, ptr %7, align 8
  br label %105

105:                                              ; preds = %109, %102
  %106 = load ptr, ptr %7, align 8
  %107 = load ptr, ptr %8, align 8
  %108 = icmp ule ptr %106, %107
  br i1 %108, label %109, label %139

109:                                              ; preds = %105
  %110 = load ptr, ptr %7, align 8
  call void asm sideeffect "", "r,~{dirflag},~{fpsr},~{flags}"(ptr %110) #19, !srcloc !61
  %111 = load ptr, ptr %9, align 8
  %112 = getelementptr inbounds i8, ptr %111, i64 0
  %113 = load i8, ptr %112, align 1
  %114 = uitofp i8 %113 to float
  %115 = load ptr, ptr %7, align 8
  %116 = getelementptr inbounds float, ptr %115, i64 -4
  store float %114, ptr %116, align 4
  %117 = load ptr, ptr %9, align 8
  %118 = getelementptr inbounds i8, ptr %117, i64 1
  %119 = load i8, ptr %118, align 1
  %120 = uitofp i8 %119 to float
  %121 = load ptr, ptr %7, align 8
  %122 = getelementptr inbounds float, ptr %121, i64 -3
  store float %120, ptr %122, align 4
  %123 = load ptr, ptr %9, align 8
  %124 = getelementptr inbounds i8, ptr %123, i64 2
  %125 = load i8, ptr %124, align 1
  %126 = uitofp i8 %125 to float
  %127 = load ptr, ptr %7, align 8
  %128 = getelementptr inbounds float, ptr %127, i64 -2
  store float %126, ptr %128, align 4
  %129 = load ptr, ptr %9, align 8
  %130 = getelementptr inbounds i8, ptr %129, i64 3
  %131 = load i8, ptr %130, align 1
  %132 = uitofp i8 %131 to float
  %133 = load ptr, ptr %7, align 8
  %134 = getelementptr inbounds float, ptr %133, i64 -1
  store float %132, ptr %134, align 4
  %135 = load ptr, ptr %7, align 8
  %136 = getelementptr inbounds float, ptr %135, i64 4
  store ptr %136, ptr %7, align 8
  %137 = load ptr, ptr %9, align 8
  %138 = getelementptr inbounds i8, ptr %137, i64 4
  store ptr %138, ptr %9, align 8
  br label %105, !llvm.loop !62

139:                                              ; preds = %105
  %140 = load ptr, ptr %7, align 8
  %141 = getelementptr inbounds float, ptr %140, i64 -4
  store ptr %141, ptr %7, align 8
  br label %142

142:                                              ; preds = %146, %139
  %143 = load ptr, ptr %7, align 8
  %144 = load ptr, ptr %8, align 8
  %145 = icmp ult ptr %143, %144
  br i1 %145, label %146, label %158

146:                                              ; preds = %142
  %147 = load ptr, ptr %7, align 8
  call void asm sideeffect "", "r,~{dirflag},~{fpsr},~{flags}"(ptr %147) #19, !srcloc !63
  %148 = load ptr, ptr %9, align 8
  %149 = getelementptr inbounds i8, ptr %148, i64 0
  %150 = load i8, ptr %149, align 1
  %151 = uitofp i8 %150 to float
  %152 = load ptr, ptr %7, align 8
  %153 = getelementptr inbounds float, ptr %152, i64 0
  store float %151, ptr %153, align 4
  %154 = load ptr, ptr %7, align 8
  %155 = getelementptr inbounds float, ptr %154, i64 1
  store ptr %155, ptr %7, align 8
  %156 = load ptr, ptr %9, align 8
  %157 = getelementptr inbounds i8, ptr %156, i64 1
  store ptr %157, ptr %9, align 8
  br label %142, !llvm.loop !64

158:                                              ; preds = %142
  store i32 0, ptr %21, align 4
  br label %159

159:                                              ; preds = %158, %101
  call void @llvm.lifetime.end.p0(i64 8, ptr %10) #19
  call void @llvm.lifetime.end.p0(i64 8, ptr %9) #19
  call void @llvm.lifetime.end.p0(i64 8, ptr %8) #19
  call void @llvm.lifetime.end.p0(i64 8, ptr %7) #19
  %160 = load i32, ptr %21, align 4
  switch i32 %160, label %162 [
    i32 0, label %161
    i32 1, label %161
  ]

161:                                              ; preds = %159, %159
  ret void

162:                                              ; preds = %159, %98
  unreachable
}